Certificate:
    Data:
        Version: 3 (0x2)
        Serial Number: 4098 (0x1002)
    Signature Algorithm: sha256WithRSAEncryption
        Issuer: C=US, ST=NC, L=Raleigh, O=NCSU, OU=CSC, CN=574/emailAddress=harfoush@cs.ncsu.edu
        Validity
            Not Before: Nov 19 15:43:30 2015 GMT
            Not After : Nov 18 15:43:30 2016 GMT
        Subject: C=US, ST=NC, L=Raleigh, O=NCSU, OU=ECE, CN=eserrao@ncsu.edu/emailAddress=eserrao@ncsu.edu
        Subject Public Key Info:
            Public Key Algorithm: rsaEncryption
                Public-Key: (1024 bit)
                Modulus:
                    00:e0:1e:2a:7b:a2:61:24:a3:89:07:01:cc:83:73:
                    eb:d2:af:fc:c3:50:73:9e:9d:0a:24:f8:71:6c:c2:
                    cd:d7:61:70:81:1f:1a:95:c0:af:0e:97:3e:dc:b6:
                    53:8f:d6:fb:ea:9f:ac:1c:f0:d2:5c:5c:07:41:57:
                    0e:44:e6:92:b7:a0:e3:59:3d:3f:88:67:d0:de:6f:
                    08:61:22:16:36:a4:01:6d:1d:a9:0f:2f:f6:18:3c:
                    78:9f:1b:ef:71:35:9d:db:64:47:d3:2f:a9:a7:b3:
                    e1:a4:7f:8c:4c:00:d7:98:c9:24:b6:eb:1b:9d:e3:
                    66:95:b1:38:c5:43:c0:3c:5d
                Exponent: 65537 (0x10001)
        X509v3 extensions:
            X509v3 Basic Constraints: 
                CA:FALSE
            Netscape Comment: 
                OpenSSL Generated Certificate
            X509v3 Subject Key Identifier: 
                E6:D2:67:D8:4B:8D:D0:28:87:40:A0:C5:09:C4:F6:DD:7C:85:74:4E
            X509v3 Authority Key Identifier: 
                keyid:AE:85:18:73:51:F3:9C:38:22:0B:55:8C:52:2F:C2:95:06:F9:9D:EF

    Signature Algorithm: sha256WithRSAEncryption
         8a:5b:5a:04:52:0c:eb:3a:9a:53:79:25:34:f8:55:7b:6e:f5:
         de:a3:87:fb:8a:de:c2:a8:45:61:4e:f8:59:15:cc:d6:cf:f5:
         d6:ca:36:46:da:23:0b:bc:00:a7:df:8b:cd:fc:3f:da:68:20:
         35:71:d6:f6:f0:be:c2:47:03:0e:9e:35:2b:65:98:71:5d:04:
         53:68:e9:e2:1e:76:16:5b:f2:06:7e:c0:d9:4b:92:cf:7b:ef:
         29:b1:89:25:7c:d9:be:f1:26:74:66:2a:f1:92:61:99:97:5b:
         07:1e:03:56:e4:62:cc:b7:20:25:55:22:cb:fb:7b:d3:11:c6:
         55:06
-----BEGIN CERTIFICATE-----
MIIC9DCCAl2gAwIBAgICEAIwDQYJKoZIhvcNAQELBQAwfDELMAkGA1UEBhMCVVMx
CzAJBgNVBAgMAk5DMRAwDgYDVQQHDAdSYWxlaWdoMQ0wCwYDVQQKDAROQ1NVMQww
CgYDVQQLDANDU0MxDDAKBgNVBAMMAzU3NDEjMCEGCSqGSIb3DQEJARYUaGFyZm91
c2hAY3MubmNzdS5lZHUwHhcNMTUxMTE5MTU0MzMwWhcNMTYxMTE4MTU0MzMwWjCB
hTELMAkGA1UEBhMCVVMxCzAJBgNVBAgMAk5DMRAwDgYDVQQHDAdSYWxlaWdoMQ0w
CwYDVQQKDAROQ1NVMQwwCgYDVQQLDANFQ0UxGTAXBgNVBAMMEGVzZXJyYW9AbmNz
dS5lZHUxHzAdBgkqhkiG9w0BCQEWEGVzZXJyYW9AbmNzdS5lZHUwgZ8wDQYJKoZI
hvcNAQEBBQADgY0AMIGJAoGBAOAeKnuiYSSjiQcBzINz69Kv/MNQc56dCiT4cWzC
zddhcIEfGpXArw6XPty2U4/W++qfrBzw0lxcB0FXDkTmkreg41k9P4hn0N5vCGEi
FjakAW0dqQ8v9hg8eJ8b73E1ndtkR9Mvqaez4aR/jEwA15jJJLbrG53jZpWxOMVD
wDxdAgMBAAGjezB5MAkGA1UdEwQCMAAwLAYJYIZIAYb4QgENBB8WHU9wZW5TU0wg
R2VuZXJhdGVkIENlcnRpZmljYXRlMB0GA1UdDgQWBBTm0mfYS43QKIdAoMUJxPbd
fIV0TjAfBgNVHSMEGDAWgBSuhRhzUfOcOCILVYxSL8KVBvmd7zANBgkqhkiG9w0B
AQsFAAOBgQCKW1oEUgzrOppTeSU0+FV7bvXeo4f7it7CqEVhTvhZFczWz/XWyjZG
2iMLvACn34vN/D/aaCA1cdb28L7CRwMOnjUrZZhxXQRTaOniHnYWW/IGfsDZS5LP
e+8psYklfNm+8SZ0ZirxkmGZl1sHHgNW5GLMtyAlVSLL+3vTEcZVBg==
-----END CERTIFICATE-----
