Certificate:
    Data:
        Version: 3 (0x2)
        Serial Number: 4160 (0x1040)
    Signature Algorithm: sha256WithRSAEncryption
        Issuer: C=US, ST=NC, L=Raleigh, O=NCSU, OU=CSC, CN=574/emailAddress=harfoush@cs.ncsu.edu
        Validity
            Not Before: Nov 28 23:06:52 2015 GMT
            Not After : Nov 27 23:06:52 2016 GMT
        Subject: C=US, ST=North Carolina, L=Raleigh, O=NCSU, OU=CPE, CN=Kavit/emailAddress=kmmehta@ncsu.edu
        Subject Public Key Info:
            Public Key Algorithm: rsaEncryption
                Public-Key: (1024 bit)
                Modulus:
                    00:d1:51:1c:f4:db:82:5f:2a:ea:72:2a:d4:56:86:
                    b0:8b:89:f1:8c:95:1f:e7:62:f4:48:ac:ac:e4:e3:
                    be:f8:45:da:44:22:23:7e:1c:a3:96:62:86:47:b0:
                    10:c1:8c:bf:0f:a5:ba:d7:a9:8a:e3:73:d5:c4:ac:
                    13:cc:7a:69:5a:30:2f:b1:cd:86:25:92:6c:14:3f:
                    b0:95:57:15:a4:41:eb:d5:2c:ea:48:2c:dc:fc:6a:
                    b7:ec:42:26:e0:4c:d8:71:a3:91:85:d1:67:08:ee:
                    1b:34:38:f0:6a:90:57:68:14:ee:10:28:66:27:3c:
                    f9:6a:38:d2:71:ad:66:11:7d
                Exponent: 65537 (0x10001)
        X509v3 extensions:
            X509v3 Basic Constraints: 
                CA:FALSE
            Netscape Comment: 
                OpenSSL Generated Certificate
            X509v3 Subject Key Identifier: 
                22:96:AD:D0:27:26:49:82:64:C1:53:E0:15:71:41:F6:B3:5E:ED:67
            X509v3 Authority Key Identifier: 
                keyid:AE:85:18:73:51:F3:9C:38:22:0B:55:8C:52:2F:C2:95:06:F9:9D:EF

    Signature Algorithm: sha256WithRSAEncryption
         25:f9:19:2c:71:72:2d:e4:78:9c:74:c3:bc:c8:b3:95:4b:32:
         fb:f8:96:76:4d:86:35:35:f3:f9:fb:47:39:d9:f4:dc:4c:3e:
         06:46:1f:4d:5f:d6:14:8f:48:44:54:1b:35:ac:9e:8f:b7:2d:
         17:30:ff:99:f1:e2:bd:f0:bd:7f:cd:21:4e:76:05:8e:cf:2d:
         e5:e1:4b:c3:d6:8f:97:63:20:ed:1f:7f:d6:6e:2e:90:9d:28:
         94:48:c7:ee:9f:c8:d7:6b:c8:7b:ea:e7:dc:da:97:f5:47:4c:
         08:8c:60:de:06:3e:2e:66:7a:01:33:ca:1d:92:a0:c3:3e:44:
         f4:50
-----BEGIN CERTIFICATE-----
MIIC9TCCAl6gAwIBAgICEEAwDQYJKoZIhvcNAQELBQAwfDELMAkGA1UEBhMCVVMx
CzAJBgNVBAgMAk5DMRAwDgYDVQQHDAdSYWxlaWdoMQ0wCwYDVQQKDAROQ1NVMQww
CgYDVQQLDANDU0MxDDAKBgNVBAMMAzU3NDEjMCEGCSqGSIb3DQEJARYUaGFyZm91
c2hAY3MubmNzdS5lZHUwHhcNMTUxMTI4MjMwNjUyWhcNMTYxMTI3MjMwNjUyWjCB
hjELMAkGA1UEBhMCVVMxFzAVBgNVBAgMDk5vcnRoIENhcm9saW5hMRAwDgYDVQQH
DAdSYWxlaWdoMQ0wCwYDVQQKDAROQ1NVMQwwCgYDVQQLDANDUEUxDjAMBgNVBAMM
BUthdml0MR8wHQYJKoZIhvcNAQkBFhBrbW1laHRhQG5jc3UuZWR1MIGfMA0GCSqG
SIb3DQEBAQUAA4GNADCBiQKBgQDRURz024JfKupyKtRWhrCLifGMlR/nYvRIrKzk
4774RdpEIiN+HKOWYoZHsBDBjL8PpbrXqYrjc9XErBPMemlaMC+xzYYlkmwUP7CV
VxWkQevVLOpILNz8arfsQibgTNhxo5GF0WcI7hs0OPBqkFdoFO4QKGYnPPlqONJx
rWYRfQIDAQABo3sweTAJBgNVHRMEAjAAMCwGCWCGSAGG+EIBDQQfFh1PcGVuU1NM
IEdlbmVyYXRlZCBDZXJ0aWZpY2F0ZTAdBgNVHQ4EFgQUIpat0CcmSYJkwVPgFXFB
9rNe7WcwHwYDVR0jBBgwFoAUroUYc1HznDgiC1WMUi/ClQb5ne8wDQYJKoZIhvcN
AQELBQADgYEAJfkZLHFyLeR4nHTDvMizlUsy+/iWdk2GNTXz+ftHOdn03Ew+BkYf
TV/WFI9IRFQbNayej7ctFzD/mfHivfC9f80hTnYFjs8t5eFLw9aPl2Mg7R9/1m4u
kJ0olEjH7p/I12vIe+rn3NqX9UdMCIxg3gY+LmZ6ATPKHZKgwz5E9FA=
-----END CERTIFICATE-----
