Certificate:
    Data:
        Version: 3 (0x2)
        Serial Number: 4158 (0x103e)
    Signature Algorithm: sha256WithRSAEncryption
        Issuer: C=US, ST=NC, L=Raleigh, O=NCSU, OU=CSC, CN=574/emailAddress=harfoush@cs.ncsu.edu
        Validity
            Not Before: Nov 28 23:06:49 2015 GMT
            Not After : Nov 27 23:06:49 2016 GMT
        Subject: C=US, ST=North Carolina, L=Raleigh, O=NCSU, OU=CSC, CN=Mani Kumar/emailAddress=pghanta@ncsu.edu
        Subject Public Key Info:
            Public Key Algorithm: rsaEncryption
                Public-Key: (1024 bit)
                Modulus:
                    00:cb:03:d1:db:74:99:a5:1f:97:c8:16:ee:90:65:
                    72:2d:f6:e2:9c:c7:d9:c3:5d:cb:83:d0:51:6b:2e:
                    3b:4f:32:bc:64:c1:58:35:04:b1:3d:01:ac:2c:8f:
                    b9:47:e1:35:02:62:58:0d:58:6b:83:4d:89:e4:0f:
                    18:0f:7d:09:0d:7e:8e:ae:da:3c:63:0e:57:9f:40:
                    af:08:68:8d:4a:81:76:7c:d7:c5:3e:ba:c1:3d:73:
                    98:b8:77:ef:d6:4d:62:12:60:cd:c5:05:ce:58:8f:
                    e5:95:d4:88:25:93:60:5f:d1:32:1e:5f:32:2f:0d:
                    ff:06:4f:14:c1:1d:5d:e9:5f
                Exponent: 65537 (0x10001)
        X509v3 extensions:
            X509v3 Basic Constraints: 
                CA:FALSE
            Netscape Comment: 
                OpenSSL Generated Certificate
            X509v3 Subject Key Identifier: 
                46:18:24:DB:FB:92:24:AD:B2:79:1B:26:11:2A:AD:51:1B:87:50:95
            X509v3 Authority Key Identifier: 
                keyid:AE:85:18:73:51:F3:9C:38:22:0B:55:8C:52:2F:C2:95:06:F9:9D:EF

    Signature Algorithm: sha256WithRSAEncryption
         0f:9c:f9:d4:53:9e:4e:b6:f7:7a:b2:12:22:45:72:24:a7:8e:
         06:48:76:8c:e5:e1:12:fb:36:1d:98:77:55:f9:85:2e:7d:e9:
         c7:17:67:03:9e:a9:58:ad:00:da:e4:05:20:4c:d7:c5:0d:29:
         33:ed:91:40:2d:be:44:9d:e3:51:4e:f3:bc:e5:f1:9c:74:e9:
         0c:bd:54:c0:76:38:c4:fa:b1:0a:a8:1b:23:ec:31:3b:9d:ed:
         e6:15:e0:34:a3:8e:68:5d:95:3d:78:a6:63:e5:27:66:2c:3b:
         d0:f6:ed:dd:d1:bd:e2:3f:af:05:b2:26:64:d9:37:4e:29:0d:
         4e:70
-----BEGIN CERTIFICATE-----
MIIC+jCCAmOgAwIBAgICED4wDQYJKoZIhvcNAQELBQAwfDELMAkGA1UEBhMCVVMx
CzAJBgNVBAgMAk5DMRAwDgYDVQQHDAdSYWxlaWdoMQ0wCwYDVQQKDAROQ1NVMQww
CgYDVQQLDANDU0MxDDAKBgNVBAMMAzU3NDEjMCEGCSqGSIb3DQEJARYUaGFyZm91
c2hAY3MubmNzdS5lZHUwHhcNMTUxMTI4MjMwNjQ5WhcNMTYxMTI3MjMwNjQ5WjCB
izELMAkGA1UEBhMCVVMxFzAVBgNVBAgMDk5vcnRoIENhcm9saW5hMRAwDgYDVQQH
DAdSYWxlaWdoMQ0wCwYDVQQKDAROQ1NVMQwwCgYDVQQLDANDU0MxEzARBgNVBAMM
Ck1hbmkgS3VtYXIxHzAdBgkqhkiG9w0BCQEWEHBnaGFudGFAbmNzdS5lZHUwgZ8w
DQYJKoZIhvcNAQEBBQADgY0AMIGJAoGBAMsD0dt0maUfl8gW7pBlci324pzH2cNd
y4PQUWsuO08yvGTBWDUEsT0BrCyPuUfhNQJiWA1Ya4NNieQPGA99CQ1+jq7aPGMO
V59ArwhojUqBdnzXxT66wT1zmLh379ZNYhJgzcUFzliP5ZXUiCWTYF/RMh5fMi8N
/wZPFMEdXelfAgMBAAGjezB5MAkGA1UdEwQCMAAwLAYJYIZIAYb4QgENBB8WHU9w
ZW5TU0wgR2VuZXJhdGVkIENlcnRpZmljYXRlMB0GA1UdDgQWBBRGGCTb+5IkrbJ5
GyYRKq1RG4dQlTAfBgNVHSMEGDAWgBSuhRhzUfOcOCILVYxSL8KVBvmd7zANBgkq
hkiG9w0BAQsFAAOBgQAPnPnUU55Otvd6shIiRXIkp44GSHaM5eES+zYdmHdV+YUu
fenHF2cDnqlYrQDa5AUgTNfFDSkz7ZFALb5EneNRTvO85fGcdOkMvVTAdjjE+rEK
qBsj7DE7ne3mFeA0o45oXZU9eKZj5SdmLDvQ9u3d0b3iP68FsiZk2TdOKQ1OcA==
-----END CERTIFICATE-----
