Certificate:
    Data:
        Version: 3 (0x2)
        Serial Number: 4140 (0x102c)
    Signature Algorithm: sha256WithRSAEncryption
        Issuer: C=US, ST=NC, L=Raleigh, O=NCSU, OU=CSC, CN=574/emailAddress=harfoush@cs.ncsu.edu
        Validity
            Not Before: Nov 26 16:09:07 2015 GMT
            Not After : Nov 25 16:09:07 2016 GMT
        Subject: C=US, ST=NC, L=Raleigh, O=NCSU, OU=ECE-CN, CN=pgorrep/emailAddress=pgorrep@ncsu.edu
        Subject Public Key Info:
            Public Key Algorithm: rsaEncryption
                Public-Key: (1024 bit)
                Modulus:
                    00:db:13:55:49:3c:7e:ef:2d:47:63:67:23:5c:9b:
                    02:58:d9:1f:83:c0:0f:ed:dc:0d:07:e1:ce:ae:b5:
                    ed:06:6f:4f:2c:4e:2d:b1:aa:77:83:58:9c:27:b6:
                    10:ca:bc:6a:a9:9e:35:95:a0:1d:0f:d8:dd:c0:80:
                    d1:2c:84:3d:10:65:48:1f:08:36:35:39:89:33:bb:
                    31:4a:4f:28:e2:40:bb:4a:92:d9:8c:81:c3:c2:a6:
                    58:c4:82:42:8a:3f:94:1f:0e:ec:24:4d:2b:52:19:
                    5e:0c:6a:41:e1:3c:aa:0f:3d:32:31:2c:01:7d:e2:
                    9a:6f:83:84:e5:d1:e9:73:1d
                Exponent: 65537 (0x10001)
        X509v3 extensions:
            X509v3 Basic Constraints: 
                CA:FALSE
            Netscape Comment: 
                OpenSSL Generated Certificate
            X509v3 Subject Key Identifier: 
                6E:97:D1:94:BF:22:B2:04:21:7E:17:1C:69:FD:31:1F:A4:B8:5A:FD
            X509v3 Authority Key Identifier: 
                keyid:AE:85:18:73:51:F3:9C:38:22:0B:55:8C:52:2F:C2:95:06:F9:9D:EF

    Signature Algorithm: sha256WithRSAEncryption
         59:f0:a6:74:33:eb:3a:38:06:5c:72:3c:91:5f:75:9b:51:40:
         58:c1:f0:35:02:79:84:db:f9:dc:1a:91:c8:d1:08:74:30:78:
         d2:c2:38:9d:39:b7:bb:92:61:0c:2f:59:29:ba:b8:b9:e1:80:
         8a:35:22:1a:f7:8e:3a:e7:11:51:ac:5a:05:6a:6a:99:39:93:
         89:cf:85:b0:8e:23:86:3a:7e:74:bb:15:a8:0c:60:18:a3:1e:
         d7:ce:47:3e:17:54:30:b9:e6:bd:02:8e:01:33:07:17:88:1f:
         e1:7b:7f:66:71:2e:e9:9b:2a:78:ac:cc:4e:ec:e6:83:ce:68:
         28:ff
-----BEGIN CERTIFICATE-----
MIIC7TCCAlagAwIBAgICECwwDQYJKoZIhvcNAQELBQAwfDELMAkGA1UEBhMCVVMx
CzAJBgNVBAgMAk5DMRAwDgYDVQQHDAdSYWxlaWdoMQ0wCwYDVQQKDAROQ1NVMQww
CgYDVQQLDANDU0MxDDAKBgNVBAMMAzU3NDEjMCEGCSqGSIb3DQEJARYUaGFyZm91
c2hAY3MubmNzdS5lZHUwHhcNMTUxMTI2MTYwOTA3WhcNMTYxMTI1MTYwOTA3WjB/
MQswCQYDVQQGEwJVUzELMAkGA1UECAwCTkMxEDAOBgNVBAcMB1JhbGVpZ2gxDTAL
BgNVBAoMBE5DU1UxDzANBgNVBAsMBkVDRS1DTjEQMA4GA1UEAwwHcGdvcnJlcDEf
MB0GCSqGSIb3DQEJARYQcGdvcnJlcEBuY3N1LmVkdTCBnzANBgkqhkiG9w0BAQEF
AAOBjQAwgYkCgYEA2xNVSTx+7y1HY2cjXJsCWNkfg8AP7dwNB+HOrrXtBm9PLE4t
sap3g1icJ7YQyrxqqZ41laAdD9jdwIDRLIQ9EGVIHwg2NTmJM7sxSk8o4kC7SpLZ
jIHDwqZYxIJCij+UHw7sJE0rUhleDGpB4TyqDz0yMSwBfeKab4OE5dHpcx0CAwEA
AaN7MHkwCQYDVR0TBAIwADAsBglghkgBhvhCAQ0EHxYdT3BlblNTTCBHZW5lcmF0
ZWQgQ2VydGlmaWNhdGUwHQYDVR0OBBYEFG6X0ZS/IrIEIX4XHGn9MR+kuFr9MB8G
A1UdIwQYMBaAFK6FGHNR85w4IgtVjFIvwpUG+Z3vMA0GCSqGSIb3DQEBCwUAA4GB
AFnwpnQz6zo4BlxyPJFfdZtRQFjB8DUCeYTb+dwakcjRCHQweNLCOJ05t7uSYQwv
WSm6uLnhgIo1Ihr3jjrnEVGsWgVqapk5k4nPhbCOI4Y6fnS7FagMYBijHtfORz4X
VDC55r0CjgEzBxeIH+F7f2ZxLumbKniszE7s5oPOaCj/
-----END CERTIFICATE-----
