Certificate:
    Data:
        Version: 3 (0x2)
        Serial Number: 4121 (0x1019)
    Signature Algorithm: sha256WithRSAEncryption
        Issuer: C=US, ST=NC, L=Raleigh, O=NCSU, OU=CSC, CN=574/emailAddress=harfoush@cs.ncsu.edu
        Validity
            Not Before: Nov 23 18:27:42 2015 GMT
            Not After : Nov 22 18:27:42 2016 GMT
        Subject: C=US, ST=North Carolina, L=Raleigh, O=North Carolina State University, OU=CSC 574, CN=RamakantMoka VivekanandaVakkalanka/emailAddress=rmoka@ncsu.edu
        Subject Public Key Info:
            Public Key Algorithm: rsaEncryption
                Public-Key: (1024 bit)
                Modulus:
                    00:e3:f1:34:dd:c9:9d:7b:23:64:e9:c0:ab:c0:dd:
                    f4:49:d8:88:27:54:fd:3a:1e:03:bc:f6:9d:42:d4:
                    6c:ee:a4:43:c3:d5:5e:c5:3d:70:03:c6:70:4c:d1:
                    fc:e8:ae:5b:c2:b9:2f:5f:40:6c:8e:56:51:6f:2f:
                    b2:cb:c7:15:14:0a:db:39:64:db:73:c9:de:c5:99:
                    62:a5:44:cc:71:e2:c7:49:c8:30:ec:c9:16:df:92:
                    87:3b:8d:e9:10:71:8e:de:4c:fb:bc:40:25:5b:3d:
                    d2:34:7d:61:2e:32:25:91:d4:0b:ae:c9:58:b8:09:
                    c7:25:1a:0b:22:58:a9:24:ef
                Exponent: 65537 (0x10001)
        X509v3 extensions:
            X509v3 Basic Constraints: 
                CA:FALSE
            Netscape Comment: 
                OpenSSL Generated Certificate
            X509v3 Subject Key Identifier: 
                88:FE:09:4B:B5:FC:57:80:01:0E:BB:0E:0E:22:50:1C:E6:FA:A5:F0
            X509v3 Authority Key Identifier: 
                keyid:AE:85:18:73:51:F3:9C:38:22:0B:55:8C:52:2F:C2:95:06:F9:9D:EF

    Signature Algorithm: sha256WithRSAEncryption
         ce:7c:be:39:56:a6:55:5e:05:6e:c5:96:56:13:fb:f0:da:d5:
         1f:23:1b:83:97:1f:89:29:fc:70:a7:b0:12:f8:47:c1:c5:0e:
         78:32:87:f4:1a:95:97:e8:ae:e5:ba:1e:fd:a8:90:04:8d:a5:
         81:87:02:c4:71:2c:bb:1d:40:bd:e5:e3:5f:86:f4:20:20:1d:
         00:12:e7:61:38:f4:40:c7:7a:77:26:3a:f6:d0:e1:40:0f:36:
         32:60:5b:f1:64:91:e9:b5:a4:ea:76:61:e4:72:d8:f8:9c:18:
         60:a5:e3:76:0a:38:45:c2:1b:9e:a9:bd:94:e4:a9:aa:69:4b:
         f3:14
-----BEGIN CERTIFICATE-----
MIIDLzCCApigAwIBAgICEBkwDQYJKoZIhvcNAQELBQAwfDELMAkGA1UEBhMCVVMx
CzAJBgNVBAgMAk5DMRAwDgYDVQQHDAdSYWxlaWdoMQ0wCwYDVQQKDAROQ1NVMQww
CgYDVQQLDANDU0MxDDAKBgNVBAMMAzU3NDEjMCEGCSqGSIb3DQEJARYUaGFyZm91
c2hAY3MubmNzdS5lZHUwHhcNMTUxMTIzMTgyNzQyWhcNMTYxMTIyMTgyNzQyWjCB
wDELMAkGA1UEBhMCVVMxFzAVBgNVBAgMDk5vcnRoIENhcm9saW5hMRAwDgYDVQQH
DAdSYWxlaWdoMSgwJgYDVQQKDB9Ob3J0aCBDYXJvbGluYSBTdGF0ZSBVbml2ZXJz
aXR5MRAwDgYDVQQLDAdDU0MgNTc0MSswKQYDVQQDDCJSYW1ha2FudE1va2EgVml2
ZWthbmFuZGFWYWtrYWxhbmthMR0wGwYJKoZIhvcNAQkBFg5ybW9rYUBuY3N1LmVk
dTCBnzANBgkqhkiG9w0BAQEFAAOBjQAwgYkCgYEA4/E03cmdeyNk6cCrwN30SdiI
J1T9Oh4DvPadQtRs7qRDw9VexT1wA8ZwTNH86K5bwrkvX0BsjlZRby+yy8cVFArb
OWTbc8nexZlipUTMceLHScgw7MkW35KHO43pEHGO3kz7vEAlWz3SNH1hLjIlkdQL
rslYuAnHJRoLIlipJO8CAwEAAaN7MHkwCQYDVR0TBAIwADAsBglghkgBhvhCAQ0E
HxYdT3BlblNTTCBHZW5lcmF0ZWQgQ2VydGlmaWNhdGUwHQYDVR0OBBYEFIj+CUu1
/FeAAQ67Dg4iUBzm+qXwMB8GA1UdIwQYMBaAFK6FGHNR85w4IgtVjFIvwpUG+Z3v
MA0GCSqGSIb3DQEBCwUAA4GBAM58vjlWplVeBW7FllYT+/Da1R8jG4OXH4kp/HCn
sBL4R8HFDngyh/QalZforuW6Hv2okASNpYGHAsRxLLsdQL3l41+G9CAgHQAS52E4
9EDHencmOvbQ4UAPNjJgW/Fkkem1pOp2YeRy2PicGGCl43YKOEXCG56pvZTkqapp
S/MU
-----END CERTIFICATE-----
