Certificate:
    Data:
        Version: 3 (0x2)
        Serial Number: 4159 (0x103f)
    Signature Algorithm: sha256WithRSAEncryption
        Issuer: C=US, ST=NC, L=Raleigh, O=NCSU, OU=CSC, CN=574/emailAddress=harfoush@cs.ncsu.edu
        Validity
            Not Before: Nov 28 23:06:51 2015 GMT
            Not After : Nov 27 23:06:51 2016 GMT
        Subject: C=US, ST=North Carolina, L=Raleigh, O=NCSU, OU=CSC, CN=Mahanth/emailAddress=saddala@ncsu.edu
        Subject Public Key Info:
            Public Key Algorithm: rsaEncryption
                Public-Key: (1024 bit)
                Modulus:
                    00:a3:29:44:47:37:71:39:2e:5f:fe:d9:00:51:a9:
                    9b:af:e9:0a:a2:8a:e3:da:d2:fe:35:78:bd:79:5b:
                    27:b7:31:a1:40:62:7e:9d:30:13:5b:76:98:93:5f:
                    3c:bf:95:15:03:a2:2c:8b:0e:5d:62:28:d2:8f:4b:
                    d0:bc:de:cc:b6:5c:31:5b:24:fc:4d:45:a0:b9:fa:
                    bc:7d:6c:b3:0d:e0:c8:97:98:7d:cd:df:64:c6:6c:
                    5d:ab:ad:19:57:ae:79:9d:68:e5:f6:71:53:cc:34:
                    81:c4:82:4b:24:1f:b9:cd:11:26:2a:00:04:ea:04:
                    bc:dd:fc:aa:c4:3f:fb:51:2b
                Exponent: 65537 (0x10001)
        X509v3 extensions:
            X509v3 Basic Constraints: 
                CA:FALSE
            Netscape Comment: 
                OpenSSL Generated Certificate
            X509v3 Subject Key Identifier: 
                3B:B3:8D:2C:3D:9F:24:BF:45:80:3E:6F:38:C7:61:11:B0:E8:84:9E
            X509v3 Authority Key Identifier: 
                keyid:AE:85:18:73:51:F3:9C:38:22:0B:55:8C:52:2F:C2:95:06:F9:9D:EF

    Signature Algorithm: sha256WithRSAEncryption
         92:e2:a1:eb:d0:bf:87:10:72:0e:ad:97:49:ac:8e:6e:62:34:
         b4:ca:8b:55:94:91:fa:93:37:09:ad:14:92:69:1a:96:49:ff:
         75:4a:b0:9a:17:4a:38:8c:5e:a0:83:e8:48:c0:86:13:8e:5f:
         88:ad:52:32:3a:ee:12:4e:83:89:4c:ec:fc:f6:7e:fc:97:a2:
         89:83:2f:55:f8:25:dd:2a:38:3f:dd:c8:15:c9:cd:73:a1:d5:
         2d:3e:82:7e:21:ca:85:e6:01:df:0e:b6:2a:53:a0:f5:5f:69:
         2a:07:f3:32:8b:df:40:c0:ee:87:74:cb:4b:84:28:2c:1e:41:
         07:cd
-----BEGIN CERTIFICATE-----
MIIC9zCCAmCgAwIBAgICED8wDQYJKoZIhvcNAQELBQAwfDELMAkGA1UEBhMCVVMx
CzAJBgNVBAgMAk5DMRAwDgYDVQQHDAdSYWxlaWdoMQ0wCwYDVQQKDAROQ1NVMQww
CgYDVQQLDANDU0MxDDAKBgNVBAMMAzU3NDEjMCEGCSqGSIb3DQEJARYUaGFyZm91
c2hAY3MubmNzdS5lZHUwHhcNMTUxMTI4MjMwNjUxWhcNMTYxMTI3MjMwNjUxWjCB
iDELMAkGA1UEBhMCVVMxFzAVBgNVBAgMDk5vcnRoIENhcm9saW5hMRAwDgYDVQQH
DAdSYWxlaWdoMQ0wCwYDVQQKDAROQ1NVMQwwCgYDVQQLDANDU0MxEDAOBgNVBAMM
B01haGFudGgxHzAdBgkqhkiG9w0BCQEWEHNhZGRhbGFAbmNzdS5lZHUwgZ8wDQYJ
KoZIhvcNAQEBBQADgY0AMIGJAoGBAKMpREc3cTkuX/7ZAFGpm6/pCqKK49rS/jV4
vXlbJ7cxoUBifp0wE1t2mJNfPL+VFQOiLIsOXWIo0o9L0LzezLZcMVsk/E1FoLn6
vH1ssw3gyJeYfc3fZMZsXautGVeueZ1o5fZxU8w0gcSCSyQfuc0RJioABOoEvN38
qsQ/+1ErAgMBAAGjezB5MAkGA1UdEwQCMAAwLAYJYIZIAYb4QgENBB8WHU9wZW5T
U0wgR2VuZXJhdGVkIENlcnRpZmljYXRlMB0GA1UdDgQWBBQ7s40sPZ8kv0WAPm84
x2ERsOiEnjAfBgNVHSMEGDAWgBSuhRhzUfOcOCILVYxSL8KVBvmd7zANBgkqhkiG
9w0BAQsFAAOBgQCS4qHr0L+HEHIOrZdJrI5uYjS0yotVlJH6kzcJrRSSaRqWSf91
SrCaF0o4jF6gg+hIwIYTjl+IrVIyOu4SToOJTOz89n78l6KJgy9V+CXdKjg/3cgV
yc1zodUtPoJ+IcqF5gHfDrYqU6D1X2kqB/Myi99AwO6HdMtLhCgsHkEHzQ==
-----END CERTIFICATE-----
