Certificate:
    Data:
        Version: 3 (0x2)
        Serial Number: 4148 (0x1034)
    Signature Algorithm: sha256WithRSAEncryption
        Issuer: C=US, ST=NC, L=Raleigh, O=NCSU, OU=CSC, CN=574/emailAddress=harfoush@cs.ncsu.edu
        Validity
            Not Before: Nov 28 00:05:59 2015 GMT
            Not After : Nov 27 00:05:59 2016 GMT
        Subject: C=US, ST=North Carolina, L=Raleigh, O=NCSU, OU=CSC, CN=Ravi/emailAddress=vcheruk2@ncsu.edu
        Subject Public Key Info:
            Public Key Algorithm: rsaEncryption
                Public-Key: (1024 bit)
                Modulus:
                    00:a2:97:c7:df:40:21:87:88:ae:b2:bb:cf:47:bd:
                    a2:09:02:77:21:4f:d6:23:6c:23:1c:d3:f6:ff:19:
                    86:27:9a:b9:31:d8:85:0a:d9:d3:c5:56:7b:39:c6:
                    c0:6b:0f:23:ce:1a:44:4e:67:56:ac:f9:72:07:0f:
                    fa:b5:da:e2:44:13:cc:49:c2:6b:4d:3f:0d:01:6a:
                    e2:2a:8b:77:f0:10:5c:d9:1a:d8:28:b1:c3:5d:3a:
                    75:43:e3:a5:89:9f:6c:67:ef:2c:34:2b:44:b1:5c:
                    4d:0d:3d:ad:70:f1:f4:67:b6:1f:b4:0b:54:da:b1:
                    c3:46:72:69:62:7d:ad:00:09
                Exponent: 65537 (0x10001)
        X509v3 extensions:
            X509v3 Basic Constraints: 
                CA:FALSE
            Netscape Comment: 
                OpenSSL Generated Certificate
            X509v3 Subject Key Identifier: 
                B2:70:1E:73:E6:C9:3B:03:CF:24:3D:3E:D6:00:AB:A4:EC:3A:3B:FA
            X509v3 Authority Key Identifier: 
                keyid:AE:85:18:73:51:F3:9C:38:22:0B:55:8C:52:2F:C2:95:06:F9:9D:EF

    Signature Algorithm: sha256WithRSAEncryption
         a9:a4:aa:eb:9d:36:62:52:1c:75:8c:06:f2:80:63:16:3e:80:
         77:db:2b:00:04:6b:05:b6:1d:f2:68:8d:51:1f:f5:e9:78:04:
         7c:8c:1c:1d:9a:43:17:77:80:69:e9:74:10:52:e0:f0:df:f8:
         9f:90:f3:7e:54:ec:94:76:72:9c:06:b6:e5:17:4e:65:04:47:
         56:4a:75:2f:0a:7e:e7:b8:33:38:cb:4a:df:96:ad:17:af:83:
         d8:86:8a:93:d6:d2:c9:f7:02:67:29:99:0a:55:7b:b6:32:de:
         4c:da:8e:ab:dc:98:76:6e:35:b9:9f:37:08:78:fb:97:31:df:
         4f:ab
-----BEGIN CERTIFICATE-----
MIIC9TCCAl6gAwIBAgICEDQwDQYJKoZIhvcNAQELBQAwfDELMAkGA1UEBhMCVVMx
CzAJBgNVBAgMAk5DMRAwDgYDVQQHDAdSYWxlaWdoMQ0wCwYDVQQKDAROQ1NVMQww
CgYDVQQLDANDU0MxDDAKBgNVBAMMAzU3NDEjMCEGCSqGSIb3DQEJARYUaGFyZm91
c2hAY3MubmNzdS5lZHUwHhcNMTUxMTI4MDAwNTU5WhcNMTYxMTI3MDAwNTU5WjCB
hjELMAkGA1UEBhMCVVMxFzAVBgNVBAgMDk5vcnRoIENhcm9saW5hMRAwDgYDVQQH
DAdSYWxlaWdoMQ0wCwYDVQQKDAROQ1NVMQwwCgYDVQQLDANDU0MxDTALBgNVBAMM
BFJhdmkxIDAeBgkqhkiG9w0BCQEWEXZjaGVydWsyQG5jc3UuZWR1MIGfMA0GCSqG
SIb3DQEBAQUAA4GNADCBiQKBgQCil8ffQCGHiK6yu89HvaIJAnchT9YjbCMc0/b/
GYYnmrkx2IUK2dPFVns5xsBrDyPOGkROZ1as+XIHD/q12uJEE8xJwmtNPw0BauIq
i3fwEFzZGtgoscNdOnVD46WJn2xn7yw0K0SxXE0NPa1w8fRnth+0C1TascNGcmli
fa0ACQIDAQABo3sweTAJBgNVHRMEAjAAMCwGCWCGSAGG+EIBDQQfFh1PcGVuU1NM
IEdlbmVyYXRlZCBDZXJ0aWZpY2F0ZTAdBgNVHQ4EFgQUsnAec+bJOwPPJD0+1gCr
pOw6O/owHwYDVR0jBBgwFoAUroUYc1HznDgiC1WMUi/ClQb5ne8wDQYJKoZIhvcN
AQELBQADgYEAqaSq6502YlIcdYwG8oBjFj6Ad9srAARrBbYd8miNUR/16XgEfIwc
HZpDF3eAael0EFLg8N/4n5DzflTslHZynAa25RdOZQRHVkp1Lwp+57gzOMtK35at
F6+D2IaKk9bSyfcCZymZClV7tjLeTNqOq9yYdm41uZ83CHj7lzHfT6s=
-----END CERTIFICATE-----
